; Function Attrs: mustprogress uwtable
define noundef nonnull align 8 dereferenceable(24) ptr @_ZNK8QuantLib18OptionletStripper115optionletPricesEv(ptr noundef nonnull align 8 dereferenceable(461) %this) local_unnamed_addr #8 align 2 {
entry:
  %vtable = load ptr, ptr %this, align 8, !tbaa !33
  %vfn = getelementptr inbounds i8, ptr %vtable, i64 24
  %0 = load ptr, ptr %vfn, align 8
  tail call void %0(ptr noundef nonnull align 8 dereferenceable(12) %this)
  %optionletPrices_ = getelementptr inbounds nuw i8, ptr %this, i64 336
  ret ptr %optionletPrices_
}